target datalayout = "e-m:e-p270:32:32-p271:32:32-p272:64:64-i64:64-i128:128-f80:128-n8:16:32:64-S128"
target triple = "x86_64-pc-linux-gnu"

%union.pthread_cond_t = type { %struct.__pthread_cond_s }
%struct.__pthread_cond_s = type { %union.__atomic_wide_counter, %union.__atomic_wide_counter, [2 x i32], [2 x i32], i32, i32, [2 x i32] }
%union.__atomic_wide_counter = type { i64 }
%union.pthread_mutex_t = type { %struct.__pthread_mutex_s }
%struct.__pthread_mutex_s = type { i32, i32, i32, i32, i32, i16, i16, %struct.__pthread_internal_list }
%struct.__pthread_internal_list = type { ptr, ptr }
%struct.stepd_step_rec_t = type { ptr, ptr, i32, %union.pthread_cond_t, %union.pthread_mutex_t, %struct.slurm_step_id_msg, i32, i32, i32, i32, i32, i32, ptr, ptr, i32, i32, ptr, i32, i32, i32, i32, i32, ptr, ptr, ptr, ptr, i32, i32, i64, i64, i16, i32, ptr, ptr, ptr, i32, ptr, i32, ptr, i32, ptr, i16, i32, i32, i32, ptr, i32, ptr, ptr, ptr, ptr, i32, i32, ptr, ptr, i8, i8, i8, i64, i32, ptr, ptr, ptr, ptr, ptr, ptr, ptr, ptr, ptr, ptr, i32, i32, ptr, i8, %union.pthread_cond_t, %union.pthread_mutex_t, i64, ptr, i32, i32, i32, ptr, i64, ptr, ptr, i8, ptr, i16, ptr, ptr, ptr, ptr, ptr, ptr, i64, ptr, i64, ptr, i16, i8, i16, i32, ptr, i16, ptr, ptr, i16, ptr, ptr, ptr, i8 }
%struct.slurm_step_id_msg = type { i64, i32, i32, i32 }
%struct.stepd_step_task_info_t = type { %union.pthread_mutex_t, i32, ptr, i32, i32, i32, ptr, ptr, ptr, i32, i32, i32, i32, i32, i32, ptr, ptr, ptr, i8, i8, i8, i8, i32, i32, ptr }
%struct.exec_wait_info = type { i32, i32, i32, i32 }

@.str.157 = private unnamed_addr constant [37 x i8] c"Unblocking %ps task %d, writefd = %d\00", align 1

; Function Attrs: nounwind uwtable
define internal i32 @exec_wait_signal(ptr noundef %0, ptr noundef %1) #0 {
  %3 = alloca ptr, align 8
  %4 = alloca ptr, align 8
  store ptr %0, ptr %3, align 8
  store ptr %1, ptr %4, align 8
  br label %5

5:                                                ; preds = %2
  br label %6

6:                                                ; preds = %5
  %7 = call i32 @get_log_level()
  %8 = icmp sge i32 %7, 7
  br i1 %8, label %9, label %18

9:                                                ; preds = %6
  %10 = load ptr, ptr %4, align 8
  %11 = getelementptr inbounds nuw %struct.stepd_step_rec_t, ptr %10, i32 0, i32 5
  %12 = load ptr, ptr %3, align 8
  %13 = getelementptr inbounds nuw %struct.exec_wait_info, ptr %12, i32 0, i32 0
  %14 = load i32, ptr %13, align 4
  %15 = load ptr, ptr %3, align 8
  %16 = getelementptr inbounds nuw %struct.exec_wait_info, ptr %15, i32 0, i32 2
  %17 = load i32, ptr %16, align 4
  call void (i32, ptr, ...) @log_var(i32 noundef 7, ptr noundef @.str.157, ptr noundef %11, i32 noundef %14, i32 noundef %17)
  br label %18

18:                                               ; preds = %9, %6
  br label %19

19:                                               ; preds = %18
  br label %20

20:                                               ; preds = %19
  %21 = load ptr, ptr %3, align 8
  %22 = call i32 @exec_wait_signal_child(ptr noundef %21)
  %23 = icmp ne i32 %22, 0
  br i1 %23, label %24, label %59

24:                                               ; preds = %20
  %25 = load ptr, ptr %4, align 8
  %26 = getelementptr inbounds nuw %struct.stepd_step_rec_t, ptr %25, i32 0, i32 62
  %27 = load ptr, ptr %26, align 8
  %28 = load ptr, ptr %3, align 8
  %29 = getelementptr inbounds nuw %struct.exec_wait_info, ptr %28, i32 0, i32 0
  %30 = load i32, ptr %29, align 4
  %31 = sext i32 %30 to i64
  %32 = getelementptr inbounds ptr, ptr %27, i64 %31
  %33 = load ptr, ptr %32, align 8
  %34 = getelementptr inbounds nuw %struct.stepd_step_task_info_t, ptr %33, i32 0, i32 22
  %35 = load i32, ptr %34, align 4
  %36 = icmp ne i32 %35, 0
  br i1 %36, label %48, label %37

37:                                               ; preds = %24
  %38 = load ptr, ptr %4, align 8
  %39 = getelementptr inbounds nuw %struct.stepd_step_rec_t, ptr %38, i32 0, i32 62
  %40 = load ptr, ptr %39, align 8
  %41 = load ptr, ptr %3, align 8
  %42 = getelementptr inbounds nuw %struct.exec_wait_info, ptr %41, i32 0, i32 0
  %43 = load i32, ptr %42, align 4
  %44 = sext i32 %43 to i64
  %45 = getelementptr inbounds ptr, ptr %40, i64 %44
  %46 = load ptr, ptr %45, align 8
  %47 = getelementptr inbounds nuw %struct.stepd_step_task_info_t, ptr %46, i32 0, i32 22
  store i32 256, ptr %47, align 4
  br label %48

48:                                               ; preds = %37, %24
  %49 = load ptr, ptr %4, align 8
  %50 = getelementptr inbounds nuw %struct.stepd_step_rec_t, ptr %49, i32 0, i32 62
  %51 = load ptr, ptr %50, align 8
  %52 = load ptr, ptr %3, align 8
  %53 = getelementptr inbounds nuw %struct.exec_wait_info, ptr %52, i32 0, i32 0
  %54 = load i32, ptr %53, align 4
  %55 = sext i32 %54 to i64
  %56 = getelementptr inbounds ptr, ptr %51, i64 %55
  %57 = load ptr, ptr %56, align 8
  %58 = getelementptr inbounds nuw %struct.stepd_step_task_info_t, ptr %57, i32 0, i32 21
  store i8 1, ptr %58, align 1
  br label %59

59:                                               ; preds = %48, %20
  ret i32 0
}