; Function Attrs: nounwind uwtable
define internal noundef i32 @exec_wait_signal(ptr noundef readonly captures(none) %0, ptr noundef %1) #0 {
  %3 = tail call i32 @get_log_level() #17
  %4 = icmp sgt i32 %3, 6
  br i1 %4, label %5, label %10

5:                                                ; preds = %2
  %6 = getelementptr inbounds nuw i8, ptr %1, i64 112
  %7 = load i32, ptr %0, align 4
  %8 = getelementptr inbounds nuw i8, ptr %0, i64 8
  %9 = load i32, ptr %8, align 4
  tail call void (i32, ptr, ...) @log_var(i32 noundef 7, ptr noundef nonnull @.str.157, ptr noundef nonnull %6, i32 noundef %7, i32 noundef %9) #17
  br label %10

10:                                               ; preds = %5, %2
  %11 = tail call fastcc i32 @exec_wait_signal_child(ptr noundef %0)
  %.not = icmp eq i32 %11, 0
  br i1 %.not, label %25, label %12

12:                                               ; preds = %10
  %13 = getelementptr inbounds nuw i8, ptr %1, i64 480
  %14 = load ptr, ptr %13, align 8
  %15 = load i32, ptr %0, align 4
  %16 = sext i32 %15 to i64
  %17 = getelementptr inbounds ptr, ptr %14, i64 %16
  %18 = load ptr, ptr %17, align 8
  %19 = getelementptr inbounds nuw i8, ptr %18, i64 148
  %20 = load i32, ptr %19, align 4
  %.not10 = icmp eq i32 %20, 0
  br i1 %.not10, label %21, label %22

21:                                               ; preds = %12
  store i32 256, ptr %19, align 4
  %.pre = load ptr, ptr %13, align 8
  %.pre11 = load i32, ptr %0, align 4
  %.phi.trans.insert = sext i32 %.pre11 to i64
  %.phi.trans.insert12 = getelementptr inbounds ptr, ptr %.pre, i64 %.phi.trans.insert
  %.pre13 = load ptr, ptr %.phi.trans.insert12, align 8
  br label %22

22:                                               ; preds = %21, %12
  %23 = phi ptr [ %.pre13, %21 ], [ %18, %12 ]
  %24 = getelementptr inbounds nuw i8, ptr %23, i64 147
  store i8 1, ptr %24, align 1
  br label %25

25:                                               ; preds = %22, %10
  ret i32 0
}